; Function Attrs: mustprogress nofree norecurse nosync nounwind willreturn memory(argmem: readwrite) uwtable
define noundef ptr @_ZNK8LightGBM8DenseBinIhLb1EE14GetColWiseDataEPhPbPSt6vectorIPNS_11BinIteratorESaIS6_EEi(ptr noundef nonnull readonly align 8 captures(none) dereferenceable(64) %0, ptr noundef writeonly captures(none) initializes((0, 1)) %1, ptr noundef writeonly captures(none) initializes((0, 1)) %2, ptr noundef captures(none) %3, i32 %4) unnamed_addr #2 align 2 personality ptr @__gxx_personality_v0 {
  store i8 0, ptr %2, align 1, !tbaa !79
  store i8 4, ptr %1, align 1, !tbaa !9
  %6 = load ptr, ptr %3, align 8, !tbaa !81
  %7 = getelementptr inbounds nuw i8, ptr %3, i64 8
  %8 = load ptr, ptr %7, align 8, !tbaa !85
  %.not.i.i = icmp eq ptr %8, %6
  br i1 %.not.i.i, label %_ZNSt6vectorIPN8LightGBM11BinIteratorESaIS2_EE5clearEv.exit, label %9

9:                                                ; preds = %5
  store ptr %6, ptr %7, align 8, !tbaa !85
  br label %_ZNSt6vectorIPN8LightGBM11BinIteratorESaIS2_EE5clearEv.exit

_ZNSt6vectorIPN8LightGBM11BinIteratorESaIS2_EE5clearEv.exit: ; preds = %5, %9
  %10 = getelementptr inbounds nuw i8, ptr %0, i64 16
  %11 = load ptr, ptr %10, align 8, !tbaa !12
  ret ptr %11
}